; Function Attrs: nounwind sspstrong uwtable
define range(i32 0, 2) i32 @FLAC__metadata_object_cuesheet_delete_track(ptr noundef captures(none) %0, i32 noundef %1) local_unnamed_addr #0 {
  %3 = getelementptr inbounds nuw i8, ptr %0, i64 168
  %4 = load ptr, ptr %3, align 8, !tbaa !58
  %5 = zext i32 %1 to i64
  %6 = getelementptr inbounds nuw %struct.FLAC__StreamMetadata_CueSheet_Track, ptr %4, i64 %5, i32 5
  %7 = load ptr, ptr %6, align 8, !tbaa !21
  tail call void @free(ptr noundef %7) #31
  %8 = load ptr, ptr %3, align 8, !tbaa !58
  %9 = getelementptr inbounds nuw %struct.FLAC__StreamMetadata_CueSheet_Track, ptr %8, i64 %5
  %10 = add i32 %1, 1
  %11 = zext i32 %10 to i64
  %12 = getelementptr inbounds nuw %struct.FLAC__StreamMetadata_CueSheet_Track, ptr %8, i64 %11
  %13 = getelementptr inbounds nuw i8, ptr %0, i64 164
  %14 = load i32, ptr %13, align 4, !tbaa !57
  %15 = xor i32 %1, -1
  %16 = add i32 %14, %15
  %17 = zext i32 %16 to i64
  %18 = shl nuw nsw i64 %17, 5
  tail call void @llvm.memmove.p0.p0.i64(ptr noundef nonnull align 1 %9, ptr noundef nonnull align 1 %12, i64 noundef range(i64 0, 137438953441) %18, i1 noundef false) #31
  %19 = load ptr, ptr %3, align 8, !tbaa !58
  %20 = load i32, ptr %13, align 4, !tbaa !57
  %21 = add i32 %20, -1
  %22 = zext i32 %21 to i64
  %23 = getelementptr inbounds nuw %struct.FLAC__StreamMetadata_CueSheet_Track, ptr %19, i64 %22, i32 4
  store i8 0, ptr %23, align 1, !tbaa !24
  %24 = getelementptr inbounds nuw %struct.FLAC__StreamMetadata_CueSheet_Track, ptr %19, i64 %22, i32 5
  store ptr null, ptr %24, align 8, !tbaa !21
  %25 = tail call i32 @FLAC__metadata_object_cuesheet_resize_tracks(ptr noundef %0, i32 noundef %21)
  ret i32 %25
}